target datalayout = "e-m:e-p270:32:32-p271:32:32-p272:64:64-i64:64-i128:128-f80:128-n8:16:32:64-S128"
target triple = "x86_64-pc-linux-gnu"

%"class.xgboost::Value" = type { ptr, %"class.xgboost::IntrusivePtrCell", i64 }
%"class.xgboost::IntrusivePtrCell" = type { %"struct.std::atomic" }
%"struct.std::atomic" = type { %"struct.std::__atomic_base" }
%"struct.std::__atomic_base" = type { i32 }
%"class.xgboost::JsonInteger" = type { %"class.xgboost::Value", i64 }

; Function Attrs: mustprogress nounwind uwtable
define linkonce_odr noundef i64 @_ZNK7xgboost5Value4TypeEv(ptr noundef nonnull align 8 dereferenceable(24) %0) #5 comdat align 2 {
  %2 = alloca ptr, align 8
  store ptr %0, ptr %2, align 8, !tbaa !10
  %3 = load ptr, ptr %2, align 8
  %4 = getelementptr inbounds nuw %"class.xgboost::Value", ptr %3, i32 0, i32 2
  %5 = load i64, ptr %4, align 8, !tbaa !14
  ret i64 %5
}

; Function Attrs: mustprogress nounwind uwtable
define linkonce_odr noundef zeroext i1 @_ZN7xgboost11JsonInteger9IsClassOfEPKNS_5ValueE(ptr noundef %0) #5 comdat align 2 {
  %2 = alloca ptr, align 8
  store ptr %0, ptr %2, align 8, !tbaa !10
  %3 = load ptr, ptr %2, align 8, !tbaa !10
  %4 = call noundef i64 @_ZNK7xgboost5Value4TypeEv(ptr noundef nonnull align 8 dereferenceable(24) %3)
  %5 = icmp eq i64 %4, 2
  ret i1 %5
}

; Function Attrs: mustprogress nounwind uwtable
define linkonce_odr noundef nonnull align 8 dereferenceable(8) ptr @_ZNKR7xgboost11JsonInteger10GetIntegerEv(ptr noundef nonnull align 8 dereferenceable(32) %0) #5 comdat align 2 {
  %2 = alloca ptr, align 8
  store ptr %0, ptr %2, align 8, !tbaa !151
  %3 = load ptr, ptr %2, align 8
  %4 = getelementptr inbounds nuw %"class.xgboost::JsonInteger", ptr %3, i32 0, i32 1
  ret ptr %4
}

; Function Attrs: mustprogress uwtable
define linkonce_odr noundef zeroext i1 @_ZN7xgboost3IsAINS_11JsonIntegerEEEbPKNS_5ValueE(ptr noundef %0) #4 comdat {
  %2 = alloca ptr, align 8
  store ptr %0, ptr %2, align 8, !tbaa !10
  %3 = load ptr, ptr %2, align 8, !tbaa !10
  %4 = call noundef zeroext i1 @_ZN7xgboost11JsonInteger9IsClassOfEPKNS_5ValueE(ptr noundef %3)
  ret i1 %4
}

; Function Attrs: mustprogress uwtable
define noundef zeroext i1 @_ZNK7xgboost11JsonIntegereqERKNS_5ValueE(ptr noundef nonnull align 8 dereferenceable(32) %0, ptr noundef nonnull align 8 dereferenceable(24) %1) unnamed_addr #4 align 2 {
  %3 = alloca i1, align 1
  %4 = alloca ptr, align 8
  %5 = alloca ptr, align 8
  store ptr %0, ptr %4, align 8, !tbaa !151
  store ptr %1, ptr %5, align 8, !tbaa !10
  %6 = load ptr, ptr %4, align 8
  %7 = load ptr, ptr %5, align 8, !tbaa !10
  %8 = call noundef zeroext i1 @_ZN7xgboost3IsAINS_11JsonIntegerEEEbPKNS_5ValueE(ptr noundef %7)
  br i1 %8, label %10, label %9

9:                                                ; preds = %2
  store i1 false, ptr %3, align 1
  br label %18

10:                                               ; preds = %2
  %11 = getelementptr inbounds nuw %"class.xgboost::JsonInteger", ptr %6, i32 0, i32 1
  %12 = load i64, ptr %11, align 8, !tbaa !175
  %13 = load ptr, ptr %5, align 8, !tbaa !10
  %14 = call noundef ptr @_ZN7xgboost4CastIKNS_11JsonIntegerEKNS_5ValueEEEPT_PT0_(ptr noundef %13)
  %15 = call noundef nonnull align 8 dereferenceable(8) ptr @_ZNKR7xgboost11JsonInteger10GetIntegerEv(ptr noundef nonnull align 8 dereferenceable(32) %14)
  %16 = load i64, ptr %15, align 8, !tbaa !22
  %17 = icmp eq i64 %12, %16
  store i1 %17, ptr %3, align 1
  br label %18

18:                                               ; preds = %10, %9
  %19 = load i1, ptr %3, align 1
  ret i1 %19
}