; Function Attrs: mustprogress uwtable
define noundef zeroext i1 @_ZNK7xgboost11JsonIntegereqERKNS_5ValueE(ptr noundef nonnull readonly align 8 captures(none) dereferenceable(32) %0, ptr noundef nonnull align 8 dereferenceable(24) %1) unnamed_addr #3 align 2 {
  %3 = getelementptr inbounds nuw i8, ptr %1, i64 16
  %4 = load i64, ptr %3, align 8, !tbaa !8
  %5 = icmp eq i64 %4, 2
  br i1 %5, label %6, label %13

6:                                                ; preds = %2
  %7 = getelementptr inbounds nuw i8, ptr %0, i64 24
  %8 = load i64, ptr %7, align 8, !tbaa !200
  %9 = tail call noundef ptr @_ZN7xgboost4CastIKNS_11JsonIntegerEKNS_5ValueEEEPT_PT0_(ptr noundef nonnull %1)
  %10 = getelementptr inbounds nuw i8, ptr %9, i64 24
  %11 = load i64, ptr %10, align 8, !tbaa !172
  %12 = icmp eq i64 %8, %11
  br label %13

13:                                               ; preds = %2, %6
  %.0 = phi i1 [ %12, %6 ], [ false, %2 ]
  ret i1 %.0
}